; Function Attrs: mustprogress nofree norecurse nosync nounwind willreturn memory(argmem: readwrite) uwtable
define hidden range(i32 -1, 1) i32 @nghttp2_stream_update_remote_initial_window_size(ptr noundef captures(none) %0, i32 noundef %1, i32 noundef %2) local_unnamed_addr #2 {
  %4 = getelementptr inbounds nuw i8, ptr %0, i64 84
  %5 = load i32, ptr %4, align 4, !tbaa !35
  %6 = sext i32 %5 to i64
  %7 = sext i32 %1 to i64
  %8 = sext i32 %2 to i64
  %9 = sub nsw i64 %7, %8
  %10 = add nsw i64 %9, %6
  %11 = add nsw i64 %10, -2147483648
  %or.cond.i = icmp ult i64 %11, -4294967296
  br i1 %or.cond.i, label %update_initial_window_size.exit, label %12

12:                                               ; preds = %3
  %13 = trunc nsw i64 %10 to i32
  store i32 %13, ptr %4, align 4, !tbaa !35
  br label %update_initial_window_size.exit

update_initial_window_size.exit:                  ; preds = %3, %12
  %.0.i = phi i32 [ 0, %12 ], [ -1, %3 ]
  ret i32 %.0.i
}